; Function Attrs: nounwind uwtable
define void @png_read_finish_row(ptr noalias noundef %0) local_unnamed_addr #0 {
  %2 = getelementptr inbounds nuw i8, ptr %0, i64 540
  %3 = load i32, ptr %2, align 4, !tbaa !113
  %4 = add i32 %3, 1
  store i32 %4, ptr %2, align 4, !tbaa !113
  %5 = getelementptr inbounds nuw i8, ptr %0, i64 516
  %6 = load i32, ptr %5, align 4, !tbaa !114
  %7 = icmp ult i32 %4, %6
  br i1 %7, label %png_read_finish_IDAT.exit, label %8

8:                                                ; preds = %1
  %9 = getelementptr inbounds nuw i8, ptr %0, i64 620
  %10 = load i8, ptr %9, align 4, !tbaa !58
  %.not = icmp eq i8 %10, 0
  br i1 %.not, label %55, label %11

11:                                               ; preds = %8
  store i32 0, ptr %2, align 4, !tbaa !113
  %12 = getelementptr inbounds nuw i8, ptr %0, i64 552
  %13 = load ptr, ptr %12, align 8, !tbaa !115
  %14 = getelementptr inbounds nuw i8, ptr %0, i64 528
  %15 = load i64, ptr %14, align 8, !tbaa !116
  %16 = add i64 %15, 1
  tail call void @llvm.memset.p0.i64(ptr align 1 %13, i8 0, i64 %16, i1 false)
  %17 = getelementptr inbounds nuw i8, ptr %0, i64 621
  %.promoted = load i8, ptr %17, align 1, !tbaa !55
  %18 = getelementptr inbounds nuw i8, ptr %0, i64 508
  %19 = getelementptr inbounds nuw i8, ptr %0, i64 536
  %20 = getelementptr inbounds nuw i8, ptr %0, i64 308
  %21 = getelementptr inbounds nuw i8, ptr %0, i64 512
  br label %.critedge

.critedge:                                        ; preds = %41, %11
  %22 = phi i8 [ %23, %41 ], [ %.promoted, %11 ]
  %23 = add i8 %22, 1
  %24 = icmp ugt i8 %23, 6
  br i1 %24, label %.loopexit, label %25

25:                                               ; preds = %.critedge
  %26 = load i32, ptr %18, align 4, !tbaa !54
  %27 = zext nneg i8 %23 to i64
  %28 = getelementptr inbounds nuw [7 x i8], ptr @png_pass_inc, i64 0, i64 %27
  %29 = load i8, ptr %28, align 1, !tbaa !3
  %30 = zext i8 %29 to i32
  %31 = add i32 %26, %30
  %32 = getelementptr inbounds nuw [7 x i8], ptr @png_pass_start, i64 0, i64 %27
  %33 = load i8, ptr %32, align 1, !tbaa !3
  %34 = zext i8 %33 to i32
  %35 = xor i32 %34, -1
  %36 = add i32 %31, %35
  %37 = udiv i32 %36, %30
  store i32 %37, ptr %19, align 8, !tbaa !117
  %38 = load i32, ptr %20, align 4, !tbaa !57
  %39 = and i32 %38, 2
  %40 = icmp eq i32 %39, 0
  br i1 %40, label %41, label %png_read_finish_IDAT.exit.loopexit

41:                                               ; preds = %25
  %42 = load i32, ptr %21, align 8, !tbaa !118
  %43 = getelementptr inbounds nuw [7 x i8], ptr @png_pass_yinc, i64 0, i64 %27
  %44 = load i8, ptr %43, align 1, !tbaa !3
  %45 = zext i8 %44 to i32
  %46 = add i32 %42, %45
  %47 = getelementptr inbounds nuw [7 x i8], ptr @png_pass_ystart, i64 0, i64 %27
  %48 = load i8, ptr %47, align 1, !tbaa !3
  %49 = zext i8 %48 to i32
  %50 = xor i32 %49, -1
  %51 = add i32 %46, %50
  %52 = udiv i32 %51, %45
  store i32 %52, ptr %5, align 4, !tbaa !114
  %53 = icmp ult i32 %51, %45
  %54 = icmp ult i32 %36, %30
  %or.cond = select i1 %53, i1 true, i1 %54
  br i1 %or.cond, label %.critedge, label %png_read_finish_IDAT.exit.loopexit, !llvm.loop !119

.loopexit:                                        ; preds = %.critedge
  store i8 %23, ptr %17, align 1, !tbaa !55
  br label %55

55:                                               ; preds = %.loopexit, %8
  %56 = getelementptr inbounds nuw i8, ptr %0, i64 304
  %57 = load i32, ptr %56, align 8, !tbaa !31, !alias.scope !120
  %58 = and i32 %57, 8
  %59 = icmp eq i32 %58, 0
  br i1 %59, label %60, label %70

60:                                               ; preds = %55
  tail call void @png_read_IDAT_data(ptr noundef nonnull %0, ptr noundef null, i64 noundef 0)
  %61 = getelementptr inbounds nuw i8, ptr %0, i64 344
  store ptr null, ptr %61, align 8, !tbaa !85, !alias.scope !120
  %62 = load i32, ptr %56, align 8, !tbaa !31, !alias.scope !120
  %63 = and i32 %62, 8
  %64 = icmp eq i32 %63, 0
  br i1 %64, label %65, label %70

65:                                               ; preds = %60
  %66 = getelementptr inbounds nuw i8, ptr %0, i64 300
  %67 = load i32, ptr %66, align 4, !tbaa !24, !alias.scope !120
  %68 = or i32 %67, 8
  store i32 %68, ptr %66, align 4, !tbaa !24, !alias.scope !120
  %69 = or disjoint i32 %62, 8
  store i32 %69, ptr %56, align 8, !tbaa !31, !alias.scope !120
  br label %70

70:                                               ; preds = %65, %60, %55
  %71 = getelementptr inbounds nuw i8, ptr %0, i64 312
  %72 = load i32, ptr %71, align 8, !tbaa !112, !alias.scope !120
  %73 = icmp eq i32 %72, 1229209940
  br i1 %73, label %74, label %png_read_finish_IDAT.exit

74:                                               ; preds = %70
  %75 = getelementptr inbounds nuw i8, ptr %0, i64 320
  store ptr null, ptr %75, align 8, !tbaa !40, !alias.scope !120
  %76 = getelementptr inbounds nuw i8, ptr %0, i64 328
  store i32 0, ptr %76, align 8, !tbaa !39, !alias.scope !120
  store i32 0, ptr %71, align 8, !tbaa !112, !alias.scope !120
  %77 = getelementptr inbounds nuw i8, ptr %0, i64 592
  %78 = load i32, ptr %77, align 8, !tbaa !87, !alias.scope !120
  %79 = tail call fastcc range(i32 0, 2) i32 @png_crc_finish_critical(ptr noundef nonnull %0, i32 noundef %78, i32 noundef 0)
  br label %png_read_finish_IDAT.exit

png_read_finish_IDAT.exit.loopexit:               ; preds = %25, %41
  store i8 %23, ptr %17, align 1, !tbaa !55
  br label %png_read_finish_IDAT.exit

png_read_finish_IDAT.exit:                        ; preds = %png_read_finish_IDAT.exit.loopexit, %74, %70, %1
  ret void
}